; Function Attrs: nounwind sspstrong uwtable
define internal noundef i32 @marshal_compat_table_compact_i(i64 %0, i64 noundef %1, i64 %2) #0 {
  %4 = inttoptr i64 %1 to ptr
  %5 = load i64, ptr %4, align 8, !tbaa !61
  %6 = tail call i64 @rb_gc_location(i64 noundef %5) #22
  store i64 %6, ptr %4, align 8, !tbaa !61
  %7 = getelementptr inbounds nuw i8, ptr %4, i64 8
  %8 = load i64, ptr %7, align 8, !tbaa !62
  %9 = tail call i64 @rb_gc_location(i64 noundef %8) #22
  store i64 %9, ptr %7, align 8, !tbaa !62
  ret i32 0
}